; Function Attrs: mustprogress uwtable
define noundef zeroext i1 @_ZN6duckdb21DictionaryCompression14HasEnoughSpaceEmmmhm(i64 noundef %0, i64 noundef %1, i64 noundef %2, i8 noundef zeroext %3, i64 noundef %4) local_unnamed_addr #0 align 2 {
  %6 = trunc i64 %0 to i32
  %7 = and i32 %6, 31
  %8 = icmp eq i32 %7, 0
  br i1 %8, label %_ZN6duckdb21DictionaryCompression13RequiredSpaceEmmmh.exit, label %9

9:                                                ; preds = %5
  %10 = add i64 %0, 32
  %11 = tail call noundef i64 @_ZN6duckdb15NumericCastImplImiLb0EE7ConvertEi(i32 noundef %7)
  %12 = sub i64 %10, %11
  br label %_ZN6duckdb21DictionaryCompression13RequiredSpaceEmmmh.exit

_ZN6duckdb21DictionaryCompression13RequiredSpaceEmmmh.exit: ; preds = %5, %9
  %.0.i.i.i = phi i64 [ %12, %9 ], [ %0, %5 ]
  %13 = add i64 %2, 20
  %14 = zext i8 %3 to i64
  %15 = mul i64 %.0.i.i.i, %14
  %16 = lshr i64 %15, 3
  %17 = shl i64 %1, 2
  %18 = add i64 %13, %17
  %19 = add i64 %18, %16
  %20 = icmp ule i64 %19, %4
  ret i1 %20
}